target datalayout = "e-m:e-p270:32:32-p271:32:32-p272:64:64-i64:64-i128:128-f80:128-n8:16:32:64-S128"
target triple = "x86_64-pc-linux-gnu"

%"class.grpc_core::NoDestruct.14" = type { [24 x i8] }
%"class.grpc_core::Timestamp" = type { i64 }
%"class.grpc_core::HPackTable::MementoRingBuffer" = type { i32, i32, i32, i32, %"class.grpc_core::Timestamp", %"class.std::vector" }
%"class.std::vector" = type { %"struct.std::_Vector_base" }
%"struct.std::_Vector_base" = type { %"struct.std::_Vector_base<grpc_core::HPackTable::Memento, std::allocator<grpc_core::HPackTable::Memento>>::_Vector_impl" }
%"struct.std::_Vector_base<grpc_core::HPackTable::Memento, std::allocator<grpc_core::HPackTable::Memento>>::_Vector_impl" = type { %"struct.std::_Vector_base<grpc_core::HPackTable::Memento, std::allocator<grpc_core::HPackTable::Memento>>::_Vector_impl_data" }
%"struct.std::_Vector_base<grpc_core::HPackTable::Memento, std::allocator<grpc_core::HPackTable::Memento>>::_Vector_impl_data" = type { ptr, ptr, ptr }
%"struct.grpc_core::HPackTable::Memento" = type { %"class.grpc_core::ParsedMetadata", %"class.grpc_core::UniquePtrWithBitset" }
%"class.grpc_core::ParsedMetadata" = type <{ ptr, %"union.grpc_core::metadata_detail::Buffer", i32, [4 x i8] }>
%"union.grpc_core::metadata_detail::Buffer" = type { %struct.grpc_slice }
%struct.grpc_slice = type { ptr, %"union.grpc_slice::grpc_slice_data" }
%"union.grpc_slice::grpc_slice_data" = type { %"struct.grpc_slice::grpc_slice_data::grpc_slice_refcounted", [8 x i8] }
%"struct.grpc_slice::grpc_slice_data::grpc_slice_refcounted" = type { i64, ptr }
%"class.grpc_core::UniquePtrWithBitset" = type { i64 }
%"class.grpc_core::GlobalStatsCollector" = type { %"class.grpc_core::PerCpu" }
%"class.grpc_core::PerCpu" = type { [8 x i8], i64, %"class.std::unique_ptr.5" }
%"class.std::unique_ptr.5" = type { %"struct.std::__uniq_ptr_data.6" }
%"struct.std::__uniq_ptr_data.6" = type { %"class.std::__uniq_ptr_impl.7" }
%"class.std::__uniq_ptr_impl.7" = type { %"class.std::tuple.8" }
%"class.std::tuple.8" = type { %"struct.std::_Tuple_impl.9" }
%"struct.std::_Tuple_impl.9" = type { %"struct.std::_Head_base.12" }
%"struct.std::_Head_base.12" = type { ptr }
%"struct.grpc_core::GlobalStatsCollector::Data" = type { %"struct.std::atomic.21", %"struct.std::atomic.21", %"struct.std::atomic.21", %"struct.std::atomic.21", %"struct.std::atomic.21", %"struct.std::atomic.21", %"struct.std::atomic.21", %"struct.std::atomic.21", %"struct.std::atomic.21", %"struct.std::atomic.21", %"struct.std::atomic.21", %"struct.std::atomic.21", %"struct.std::atomic.21", %"struct.std::atomic.21", %"struct.std::atomic.21", %"struct.std::atomic.21", %"struct.std::atomic.21", %"struct.std::atomic.21", %"struct.std::atomic.21", %"struct.std::atomic.21", %"struct.std::atomic.21", %"struct.std::atomic.21", %"struct.std::atomic.21", %"struct.std::atomic.21", %"struct.std::atomic.21", %"struct.std::atomic.21", %"struct.std::atomic.21", %"struct.std::atomic.21", %"struct.std::atomic.21", %"struct.std::atomic.21", %"struct.std::atomic.21", %"struct.std::atomic.21", %"struct.std::atomic.21", %"struct.std::atomic.21", %"struct.std::atomic.21", %"struct.std::atomic.21", %"struct.std::atomic.21", %"class.grpc_core::HistogramCollector_65536_26", %"class.grpc_core::HistogramCollector_16777216_20", %"class.grpc_core::HistogramCollector_80_10", %"class.grpc_core::HistogramCollector_16777216_20", %"class.grpc_core::HistogramCollector_16777216_20", %"class.grpc_core::HistogramCollector_80_10", %"class.grpc_core::HistogramCollector_16777216_20", %"class.grpc_core::HistogramCollector_65536_26", %"class.grpc_core::HistogramCollector_1800000_40", %"class.grpc_core::HistogramCollector_16777216_20", %"class.grpc_core::HistogramCollector_16777216_20", %"class.grpc_core::HistogramCollector_16777216_20", %"class.grpc_core::HistogramCollector_16777216_20", %"class.grpc_core::HistogramCollector_16777216_20", %"class.grpc_core::HistogramCollector_16777216_20", %"class.grpc_core::HistogramCollector_16777216_20", %"class.grpc_core::HistogramCollector_16777216_20", %"class.grpc_core::HistogramCollector_100000_20", %"class.grpc_core::HistogramCollector_100000_20", %"class.grpc_core::HistogramCollector_10000_20", %"class.grpc_core::HistogramCollector_10000_20", %"class.grpc_core::HistogramCollector_100000_20", %"class.grpc_core::HistogramCollector_100000_20", %"class.grpc_core::HistogramCollector_100000_20", %"class.grpc_core::HistogramCollector_10000_20", %"class.grpc_core::HistogramCollector_100_20", %"class.grpc_core::HistogramCollector_100_20", %"class.grpc_core::HistogramCollector_100_20", %"class.grpc_core::HistogramCollector_100_20", %"class.grpc_core::HistogramCollector_100_20", %"class.grpc_core::HistogramCollector_100_20", %"class.grpc_core::HistogramCollector_100_20", %"class.grpc_core::HistogramCollector_100_20", %"class.grpc_core::HistogramCollector_16777216_20", %"class.grpc_core::HistogramCollector_16777216_20", %"class.grpc_core::HistogramCollector_16777216_20", %"class.grpc_core::HistogramCollector_16777216_20", %"class.grpc_core::HistogramCollector_16777216_20", %"class.grpc_core::HistogramCollector_16777216_20" }
%"struct.std::atomic.21" = type { %"struct.std::__atomic_base.22" }
%"struct.std::__atomic_base.22" = type { i64 }
%"class.grpc_core::HistogramCollector_80_10" = type { [10 x %"struct.std::atomic.21"] }
%"class.grpc_core::HistogramCollector_65536_26" = type { [26 x %"struct.std::atomic.21"] }
%"class.grpc_core::HistogramCollector_1800000_40" = type { [40 x %"struct.std::atomic.21"] }
%"class.grpc_core::HistogramCollector_100000_20" = type { [20 x %"struct.std::atomic.21"] }
%"class.grpc_core::HistogramCollector_10000_20" = type { [20 x %"struct.std::atomic.21"] }
%"class.grpc_core::HistogramCollector_100_20" = type { [20 x %"struct.std::atomic.21"] }
%"class.grpc_core::HistogramCollector_16777216_20" = type { [20 x %"struct.std::atomic.21"] }
%"class.absl::lts_20240722::log_internal::NullStream" = type { i8 }

@_ZN9grpc_core19NoDestructSingletonINS_20GlobalStatsCollectorEE6value_E = linkonce_odr global %"class.grpc_core::NoDestruct.14" zeroinitializer, comdat, align 8

; Function Attrs: mustprogress nounwind uwtable
define linkonce_odr noundef ptr @_ZN9grpc_core10NoDestructINS_20GlobalStatsCollectorEE3getEv(ptr noundef nonnull align 8 dereferenceable(24) %0) #8 comdat align 2 {
  %2 = alloca ptr, align 8
  store ptr %0, ptr %2, align 8, !tbaa !95
  %3 = load ptr, ptr %2, align 8
  %4 = getelementptr inbounds nuw %"class.grpc_core::NoDestruct.14", ptr %3, i32 0, i32 0
  ret ptr %4
}

; Function Attrs: mustprogress uwtable
define linkonce_odr noundef nonnull align 8 dereferenceable(24) ptr @_ZN9grpc_core10NoDestructINS_20GlobalStatsCollectorEEdeEv(ptr noundef nonnull align 8 dereferenceable(24) %0) #4 comdat align 2 {
  %2 = alloca ptr, align 8
  store ptr %0, ptr %2, align 8, !tbaa !95
  %3 = load ptr, ptr %2, align 8
  %4 = call noundef ptr @_ZN9grpc_core10NoDestructINS_20GlobalStatsCollectorEE3getEv(ptr noundef nonnull align 8 dereferenceable(24) %3)
  ret ptr %4
}

; Function Attrs: alwaysinline mustprogress nounwind uwtable
define linkonce_odr noundef i64 @_ZNSt13__atomic_baseImE9fetch_addEmSt12memory_order(ptr noundef nonnull align 8 dereferenceable(8) %0, i64 noundef %1, i32 noundef %2) #17 comdat align 2 {
  %4 = alloca ptr, align 8
  %5 = alloca i64, align 8
  %6 = alloca i32, align 4
  %7 = alloca i64, align 8
  %8 = alloca i64, align 8
  store ptr %0, ptr %4, align 8, !tbaa !162
  store i64 %1, ptr %5, align 8, !tbaa !24
  store i32 %2, ptr %6, align 4, !tbaa !164
  %9 = load ptr, ptr %4, align 8
  %10 = getelementptr inbounds nuw %"struct.std::__atomic_base.22", ptr %9, i32 0, i32 0
  %11 = load i32, ptr %6, align 4, !tbaa !164
  %12 = load i64, ptr %5, align 8, !tbaa !24
  store i64 %12, ptr %7, align 8, !tbaa !24
  switch i32 %11, label %13 [
    i32 1, label %16
    i32 2, label %16
    i32 3, label %19
    i32 4, label %22
    i32 5, label %25
  ]

13:                                               ; preds = %3
  %14 = load i64, ptr %7, align 8
  %15 = atomicrmw add ptr %10, i64 %14 monotonic, align 8
  store i64 %15, ptr %8, align 8
  br label %28

16:                                               ; preds = %3, %3
  %17 = load i64, ptr %7, align 8
  %18 = atomicrmw add ptr %10, i64 %17 acquire, align 8
  store i64 %18, ptr %8, align 8
  br label %28

19:                                               ; preds = %3
  %20 = load i64, ptr %7, align 8
  %21 = atomicrmw add ptr %10, i64 %20 release, align 8
  store i64 %21, ptr %8, align 8
  br label %28

22:                                               ; preds = %3
  %23 = load i64, ptr %7, align 8
  %24 = atomicrmw add ptr %10, i64 %23 acq_rel, align 8
  store i64 %24, ptr %8, align 8
  br label %28

25:                                               ; preds = %3
  %26 = load i64, ptr %7, align 8
  %27 = atomicrmw add ptr %10, i64 %26 seq_cst, align 8
  store i64 %27, ptr %8, align 8
  br label %28

28:                                               ; preds = %25, %22, %19, %16, %13
  %29 = load i64, ptr %8, align 8, !tbaa !24
  ret i64 %29
}

; Function Attrs: mustprogress uwtable
define linkonce_odr noundef ptr @_ZN9grpc_core19NoDestructSingletonINS_20GlobalStatsCollectorEE3GetEv() #4 comdat align 2 {
  %1 = call noundef nonnull align 8 dereferenceable(24) ptr @_ZN9grpc_core10NoDestructINS_20GlobalStatsCollectorEEdeEv(ptr noundef nonnull align 8 dereferenceable(24) @_ZN9grpc_core19NoDestructSingletonINS_20GlobalStatsCollectorEE6value_E)
  ret ptr %1
}

; Function Attrs: mustprogress nounwind uwtable
define linkonce_odr noundef nonnull align 1 dereferenceable(1) ptr @_ZN4absl12lts_2024072212log_internal10NullStream14InternalStreamEv(ptr noundef nonnull align 1 dereferenceable(1) %0) #8 comdat align 2 {
  %2 = alloca ptr, align 8
  store ptr %0, ptr %2, align 8, !tbaa !180
  %3 = load ptr, ptr %2, align 8
  ret ptr %3
}

; Function Attrs: mustprogress uwtable
define linkonce_odr void @_ZN9grpc_core20GlobalStatsCollector23IncrementHttp2HpackHitsEv(ptr noundef nonnull align 8 dereferenceable(24) %0) #4 comdat align 2 {
  %2 = alloca ptr, align 8
  store ptr %0, ptr %2, align 8, !tbaa !43
  %3 = load ptr, ptr %2, align 8
  %4 = getelementptr inbounds nuw %"class.grpc_core::GlobalStatsCollector", ptr %3, i32 0, i32 0
  %5 = call noundef nonnull align 8 dereferenceable(6632) ptr @_ZN9grpc_core6PerCpuINS_20GlobalStatsCollector4DataEE8this_cpuEv(ptr noundef nonnull align 8 dereferenceable(24) %4)
  %6 = getelementptr inbounds nuw %"struct.grpc_core::GlobalStatsCollector::Data", ptr %5, i32 0, i32 18
  %7 = call noundef i64 @_ZNSt13__atomic_baseImE9fetch_addEmSt12memory_order(ptr noundef nonnull align 8 dereferenceable(8) %6, i64 noundef 1, i32 noundef 0) #3
  ret void
}

; Function Attrs: inlinehint mustprogress uwtable
define linkonce_odr noundef nonnull align 8 dereferenceable(24) ptr @_ZN9grpc_core12global_statsEv() #6 comdat {
  %1 = call noundef ptr @_ZN9grpc_core19NoDestructSingletonINS_20GlobalStatsCollectorEE3GetEv()
  ret ptr %1
}

; Function Attrs: mustprogress nounwind uwtable
define linkonce_odr void @_ZN9grpc_core19UniquePtrWithBitsetINS_16HpackParseResultELm1EE6SetBitEm(ptr noundef nonnull align 8 dereferenceable(8) %0, i64 noundef %1) #8 comdat align 2 {
  %3 = alloca ptr, align 8
  %4 = alloca i64, align 8
  %5 = alloca %"class.absl::lts_20240722::log_internal::NullStream", align 1
  store ptr %0, ptr %3, align 8, !tbaa !49
  store i64 %1, ptr %4, align 8, !tbaa !24
  %6 = load ptr, ptr %3, align 8
  br label %7

7:                                                ; preds = %8, %2
  br i1 false, label %8, label %10

8:                                                ; preds = %7
  call void @llvm.lifetime.start.p0(i64 1, ptr %5) #3
  %9 = call noundef nonnull align 1 dereferenceable(1) ptr @_ZN4absl12lts_2024072212log_internal10NullStream14InternalStreamEv(ptr noundef nonnull align 1 dereferenceable(1) %5)
  call void @llvm.lifetime.end.p0(i64 1, ptr %5) #3
  br label %7, !llvm.loop !59

10:                                               ; preds = %7
  %11 = load i64, ptr %4, align 8, !tbaa !24
  %12 = trunc i64 %11 to i32
  %13 = shl i32 1, %12
  %14 = sext i32 %13 to i64
  %15 = getelementptr inbounds nuw %"class.grpc_core::UniquePtrWithBitset", ptr %6, i32 0, i32 0
  %16 = load i64, ptr %15, align 8, !tbaa !53
  %17 = or i64 %16, %14
  store i64 %17, ptr %15, align 8, !tbaa !53
  ret void
}

; Function Attrs: mustprogress nounwind uwtable
define linkonce_odr noundef zeroext i1 @_ZNK9grpc_core19UniquePtrWithBitsetINS_16HpackParseResultELm1EE7TestBitEm(ptr noundef nonnull align 8 dereferenceable(8) %0, i64 noundef %1) #8 comdat align 2 {
  %3 = alloca ptr, align 8
  %4 = alloca i64, align 8
  %5 = alloca %"class.absl::lts_20240722::log_internal::NullStream", align 1
  store ptr %0, ptr %3, align 8, !tbaa !49
  store i64 %1, ptr %4, align 8, !tbaa !24
  %6 = load ptr, ptr %3, align 8
  br label %7

7:                                                ; preds = %8, %2
  br i1 false, label %8, label %10

8:                                                ; preds = %7
  call void @llvm.lifetime.start.p0(i64 1, ptr %5) #3
  %9 = call noundef nonnull align 1 dereferenceable(1) ptr @_ZN4absl12lts_2024072212log_internal10NullStream14InternalStreamEv(ptr noundef nonnull align 1 dereferenceable(1) %5)
  call void @llvm.lifetime.end.p0(i64 1, ptr %5) #3
  br label %7, !llvm.loop !51

10:                                               ; preds = %7
  %11 = getelementptr inbounds nuw %"class.grpc_core::UniquePtrWithBitset", ptr %6, i32 0, i32 0
  %12 = load i64, ptr %11, align 8, !tbaa !53
  %13 = load i64, ptr %4, align 8, !tbaa !24
  %14 = trunc i64 %13 to i32
  %15 = shl i32 1, %14
  %16 = sext i32 %15 to i64
  %17 = and i64 %12, %16
  %18 = icmp ne i64 %17, 0
  ret i1 %18
}

; Function Attrs: mustprogress nounwind uwtable
define linkonce_odr noundef nonnull align 8 dereferenceable(56) ptr @_ZNSt6vectorIN9grpc_core10HPackTable7MementoESaIS2_EEixEm(ptr noundef nonnull align 8 dereferenceable(24) %0, i64 noundef %1) #8 comdat align 2 {
  %3 = alloca ptr, align 8
  %4 = alloca i64, align 8
  store ptr %0, ptr %3, align 8, !tbaa !35
  store i64 %1, ptr %4, align 8, !tbaa !24
  %5 = load ptr, ptr %3, align 8
  %6 = getelementptr inbounds nuw %"struct.std::_Vector_base", ptr %5, i32 0, i32 0
  %7 = getelementptr inbounds nuw %"struct.std::_Vector_base<grpc_core::HPackTable::Memento, std::allocator<grpc_core::HPackTable::Memento>>::_Vector_impl_data", ptr %6, i32 0, i32 0
  %8 = load ptr, ptr %7, align 8, !tbaa !38
  %9 = load i64, ptr %4, align 8, !tbaa !24
  %10 = getelementptr inbounds nuw %"struct.grpc_core::HPackTable::Memento", ptr %8, i64 %9
  ret ptr %10
}

; Function Attrs: mustprogress uwtable
define noundef ptr @_ZN9grpc_core10HPackTable17MementoRingBuffer6LookupEj(ptr noundef nonnull align 8 dereferenceable(48) %0, i32 noundef %1) #4 align 2 {
  %3 = alloca ptr, align 8
  %4 = alloca ptr, align 8
  %5 = alloca i32, align 4
  %6 = alloca i32, align 4
  %7 = alloca ptr, align 8
  %8 = alloca i8, align 1
  store ptr %0, ptr %4, align 8, !tbaa !3
  store i32 %1, ptr %5, align 4, !tbaa !19
  %9 = load ptr, ptr %4, align 8
  %10 = load i32, ptr %5, align 4, !tbaa !19
  %11 = getelementptr inbounds nuw %"class.grpc_core::HPackTable::MementoRingBuffer", ptr %9, i32 0, i32 1
  %12 = load i32, ptr %11, align 4, !tbaa !10
  %13 = icmp uge i32 %10, %12
  br i1 %13, label %14, label %15

14:                                               ; preds = %2
  store ptr null, ptr %3, align 8
  br label %43

15:                                               ; preds = %2
  call void @llvm.lifetime.start.p0(i64 4, ptr %6) #3
  %16 = getelementptr inbounds nuw %"class.grpc_core::HPackTable::MementoRingBuffer", ptr %9, i32 0, i32 1
  %17 = load i32, ptr %16, align 4, !tbaa !10
  %18 = sub i32 %17, 1
  %19 = load i32, ptr %5, align 4, !tbaa !19
  %20 = sub i32 %18, %19
  %21 = getelementptr inbounds nuw %"class.grpc_core::HPackTable::MementoRingBuffer", ptr %9, i32 0, i32 0
  %22 = load i32, ptr %21, align 8, !tbaa !23
  %23 = add i32 %20, %22
  %24 = getelementptr inbounds nuw %"class.grpc_core::HPackTable::MementoRingBuffer", ptr %9, i32 0, i32 2
  %25 = load i32, ptr %24, align 8, !tbaa !20
  %26 = urem i32 %23, %25
  store i32 %26, ptr %6, align 4, !tbaa !19
  call void @llvm.lifetime.start.p0(i64 8, ptr %7) #3
  %27 = getelementptr inbounds nuw %"class.grpc_core::HPackTable::MementoRingBuffer", ptr %9, i32 0, i32 5
  %28 = load i32, ptr %6, align 4, !tbaa !19
  %29 = zext i32 %28 to i64
  %30 = call noundef nonnull align 8 dereferenceable(56) ptr @_ZNSt6vectorIN9grpc_core10HPackTable7MementoESaIS2_EEixEm(ptr noundef nonnull align 8 dereferenceable(24) %27, i64 noundef %29) #3
  store ptr %30, ptr %7, align 8, !tbaa !8
  call void @llvm.lifetime.start.p0(i64 1, ptr %8) #3
  %31 = load ptr, ptr %7, align 8, !tbaa !8
  %32 = getelementptr inbounds nuw %"struct.grpc_core::HPackTable::Memento", ptr %31, i32 0, i32 1
  %33 = call noundef zeroext i1 @_ZNK9grpc_core19UniquePtrWithBitsetINS_16HpackParseResultELm1EE7TestBitEm(ptr noundef nonnull align 8 dereferenceable(8) %32, i64 noundef 0)
  %34 = zext i1 %33 to i8
  store i8 %34, ptr %8, align 1, !tbaa !55
  %35 = load ptr, ptr %7, align 8, !tbaa !8
  %36 = getelementptr inbounds nuw %"struct.grpc_core::HPackTable::Memento", ptr %35, i32 0, i32 1
  call void @_ZN9grpc_core19UniquePtrWithBitsetINS_16HpackParseResultELm1EE6SetBitEm(ptr noundef nonnull align 8 dereferenceable(8) %36, i64 noundef 0)
  %37 = load i8, ptr %8, align 1, !tbaa !55, !range !57, !noundef !58
  %38 = trunc i8 %37 to i1
  br i1 %38, label %41, label %39

39:                                               ; preds = %15
  %40 = call noundef nonnull align 8 dereferenceable(24) ptr @_ZN9grpc_core12global_statsEv()
  call void @_ZN9grpc_core20GlobalStatsCollector23IncrementHttp2HpackHitsEv(ptr noundef nonnull align 8 dereferenceable(24) %40)
  br label %41

41:                                               ; preds = %39, %15
  %42 = load ptr, ptr %7, align 8, !tbaa !8
  store ptr %42, ptr %3, align 8
  call void @llvm.lifetime.end.p0(i64 1, ptr %8) #3
  call void @llvm.lifetime.end.p0(i64 8, ptr %7) #3
  call void @llvm.lifetime.end.p0(i64 4, ptr %6) #3
  br label %43

43:                                               ; preds = %41, %14
  %44 = load ptr, ptr %3, align 8
  ret ptr %44
}