; Function Attrs: mustprogress uwtable
define noundef ptr @_ZN9grpc_core10HPackTable17MementoRingBuffer6LookupEj(ptr noundef nonnull readonly align 8 captures(none) dereferenceable(48) %0, i32 noundef %1) local_unnamed_addr #8 align 2 {
  %3 = getelementptr inbounds nuw i8, ptr %0, i64 4
  %4 = load i32, ptr %3, align 4, !tbaa !3
  %.not = icmp ult i32 %1, %4
  br i1 %.not, label %5, label %25

5:                                                ; preds = %2
  %6 = xor i32 %1, -1
  %7 = add i32 %4, %6
  %8 = load i32, ptr %0, align 8, !tbaa !35
  %9 = add i32 %7, %8
  %10 = getelementptr inbounds nuw i8, ptr %0, i64 8
  %11 = load i32, ptr %10, align 8, !tbaa !16
  %12 = urem i32 %9, %11
  %13 = getelementptr inbounds nuw i8, ptr %0, i64 24
  %14 = zext i32 %12 to i64
  %15 = load ptr, ptr %13, align 8, !tbaa !19
  %16 = getelementptr inbounds nuw %"struct.grpc_core::HPackTable::Memento", ptr %15, i64 %14
  %17 = getelementptr inbounds nuw i8, ptr %16, i64 48
  %18 = load i64, ptr %17, align 8, !tbaa !33
  %19 = and i64 %18, 1
  %.not10 = icmp eq i64 %19, 0
  %20 = or i64 %18, 1
  store i64 %20, ptr %17, align 8, !tbaa !33
  br i1 %.not10, label %21, label %25

21:                                               ; preds = %5
  %22 = tail call noundef nonnull align 8 dereferenceable(6632) ptr @_ZN9grpc_core6PerCpuINS_20GlobalStatsCollector4DataEE8this_cpuEv(ptr noundef nonnull align 8 dereferenceable(24) @_ZN9grpc_core19NoDestructSingletonINS_20GlobalStatsCollectorEE6value_E)
  %23 = getelementptr inbounds nuw i8, ptr %22, i64 144
  %24 = atomicrmw add ptr %23, i64 1 monotonic, align 8
  br label %25

25:                                               ; preds = %5, %21, %2
  %.0 = phi ptr [ null, %2 ], [ %16, %21 ], [ %16, %5 ]
  ret ptr %.0
}